target datalayout = "e-m:e-p270:32:32-p271:32:32-p272:64:64-i64:64-i128:128-f80:128-n8:16:32:64-S128"
target triple = "x86_64-pc-linux-gnu"

%struct.qtest_fault = type { ptr, %struct.quic_pkt_hdr_st, %struct.ossl_qtx_iovec_st, i64, ptr, ptr, ptr, i64, i64, ptr, ptr, ptr, ptr, ptr, ptr, ptr, ptr, %struct.bio_msg_st, i64, %struct.noise_args_data_st }
%struct.quic_pkt_hdr_st = type { i32, i32, %struct.quic_conn_id_st, %struct.quic_conn_id_st, [4 x i8], ptr, i64, i64, ptr }
%struct.quic_conn_id_st = type { i8, [20 x i8] }
%struct.ossl_qtx_iovec_st = type { ptr, i64 }
%struct.bio_msg_st = type { ptr, i64, ptr, ptr, i64 }
%struct.noise_args_data_st = type { ptr, ptr, ptr, i32 }

; Function Attrs: nounwind uwtable
define dso_local i32 @qtest_fault_resize_handshake(ptr noundef %0, i64 noundef %1) #0 {
  %3 = alloca i32, align 4
  %4 = alloca ptr, align 8
  %5 = alloca i64, align 8
  %6 = alloca ptr, align 8
  %7 = alloca i64, align 8
  %8 = alloca i32, align 4
  store ptr %0, ptr %4, align 8, !tbaa !33
  store i64 %1, ptr %5, align 8, !tbaa !62
  call void @llvm.lifetime.start.p0(i64 8, ptr %6) #8
  call void @llvm.lifetime.start.p0(i64 8, ptr %7) #8
  %9 = load ptr, ptr %4, align 8, !tbaa !33
  %10 = getelementptr inbounds nuw %struct.qtest_fault, ptr %9, i32 0, i32 8
  %11 = load i64, ptr %10, align 8, !tbaa !111
  store i64 %11, ptr %7, align 8, !tbaa !62
  %12 = load ptr, ptr %4, align 8, !tbaa !33
  %13 = getelementptr inbounds nuw %struct.qtest_fault, ptr %12, i32 0, i32 7
  %14 = load i64, ptr %13, align 8, !tbaa !112
  %15 = icmp eq i64 %14, 0
  br i1 %15, label %16, label %17

16:                                               ; preds = %2
  store i32 0, ptr %3, align 4
  store i32 1, ptr %8, align 4
  br label %42

17:                                               ; preds = %2
  %18 = load i64, ptr %5, align 8, !tbaa !62
  %19 = load ptr, ptr %4, align 8, !tbaa !33
  %20 = getelementptr inbounds nuw %struct.qtest_fault, ptr %19, i32 0, i32 7
  %21 = load i64, ptr %20, align 8, !tbaa !112
  %22 = icmp ugt i64 %18, %21
  br i1 %22, label %23, label %24

23:                                               ; preds = %17
  store i32 0, ptr %3, align 4
  store i32 1, ptr %8, align 4
  br label %42

24:                                               ; preds = %17
  %25 = load ptr, ptr %4, align 8, !tbaa !33
  %26 = getelementptr inbounds nuw %struct.qtest_fault, ptr %25, i32 0, i32 6
  %27 = load ptr, ptr %26, align 8, !tbaa !90
  store ptr %27, ptr %6, align 8, !tbaa !11
  %28 = load i64, ptr %5, align 8, !tbaa !62
  %29 = load i64, ptr %7, align 8, !tbaa !62
  %30 = icmp ugt i64 %28, %29
  br i1 %30, label %31, label %38

31:                                               ; preds = %24
  %32 = load ptr, ptr %6, align 8, !tbaa !11
  %33 = load i64, ptr %7, align 8, !tbaa !62
  %34 = getelementptr inbounds nuw i8, ptr %32, i64 %33
  %35 = load i64, ptr %5, align 8, !tbaa !62
  %36 = load i64, ptr %7, align 8, !tbaa !62
  %37 = sub i64 %35, %36
  call void @llvm.memset.p0.i64(ptr align 1 %34, i8 0, i64 %37, i1 false)
  br label %38

38:                                               ; preds = %31, %24
  %39 = load i64, ptr %5, align 8, !tbaa !62
  %40 = load ptr, ptr %4, align 8, !tbaa !33
  %41 = getelementptr inbounds nuw %struct.qtest_fault, ptr %40, i32 0, i32 8
  store i64 %39, ptr %41, align 8, !tbaa !111
  store i32 1, ptr %3, align 4
  store i32 1, ptr %8, align 4
  br label %42

42:                                               ; preds = %38, %23, %16
  call void @llvm.lifetime.end.p0(i64 8, ptr %7) #8
  call void @llvm.lifetime.end.p0(i64 8, ptr %6) #8
  %43 = load i32, ptr %3, align 4
  ret i32 %43
}