; Function Attrs: mustprogress nofree norecurse nosync nounwind willreturn memory(write, argmem: readwrite, inaccessiblemem: none) uwtable
define dso_local range(i32 0, 2) i32 @qtest_fault_resize_handshake(ptr noundef captures(none) %0, i64 noundef %1) local_unnamed_addr #6 {
  %3 = getelementptr inbounds nuw i8, ptr %0, i64 152
  %4 = load i64, ptr %3, align 8, !tbaa !81
  %5 = getelementptr inbounds nuw i8, ptr %0, i64 144
  %6 = load i64, ptr %5, align 8, !tbaa !82
  %7 = icmp eq i64 %6, 0
  %8 = icmp ugt i64 %1, %6
  %or.cond = or i1 %7, %8
  br i1 %or.cond, label %17, label %9

9:                                                ; preds = %2
  %10 = icmp ugt i64 %1, %4
  br i1 %10, label %11, label %16

11:                                               ; preds = %9
  %12 = getelementptr inbounds nuw i8, ptr %0, i64 136
  %13 = load ptr, ptr %12, align 8, !tbaa !63
  %14 = getelementptr inbounds nuw i8, ptr %13, i64 %4
  %15 = sub nuw i64 %1, %4
  tail call void @llvm.memset.p0.i64(ptr align 1 %14, i8 0, i64 %15, i1 false)
  br label %16

16:                                               ; preds = %11, %9
  store i64 %1, ptr %3, align 8, !tbaa !81
  br label %17

17:                                               ; preds = %2, %16
  %.0 = phi i32 [ 1, %16 ], [ 0, %2 ]
  ret i32 %.0
}